target datalayout = "e-m:e-p270:32:32-p271:32:32-p272:64:64-i64:64-i128:128-f80:128-n8:16:32:64-S128"
target triple = "x86_64-pc-linux-gnu"

%struct.AVProbeData = type { ptr, ptr, i32, ptr }
%struct.AVFormatContext = type { ptr, ptr, ptr, ptr, ptr, i32, i32, ptr, i32, ptr, i32, ptr, ptr, i64, i64, i64, i32, i32, i32, i64, i64, ptr, i32, i32, ptr, i32, i32, i32, i32, ptr, i64, i32, i32, %struct.AVIOInterruptCB, i32, i32, i32, i32, i64, i32, i32, i32, i32, i32, i32, i32, i32, i32, i32, i32, i32, i64, i32, i32, i32, i32, i32, ptr, ptr, ptr, ptr, i32, ptr, ptr, ptr, ptr, i32, ptr, ptr, i64, ptr, ptr, ptr, i64 }
%struct.AVIOInterruptCB = type { ptr, ptr }
%struct.CafContext = type { i32, i32, i64, i64, i64, i64, i64 }
%struct.AVStream = type { ptr, i32, i32, ptr, ptr, %struct.AVRational, i64, i64, i64, i32, i32, %struct.AVRational, ptr, %struct.AVRational, %struct.AVPacket, i32, %struct.AVRational, i32 }
%struct.AVPacket = type { ptr, i64, i64, ptr, i32, i32, i32, ptr, i32, i64, i64, ptr, ptr, %struct.AVRational }
%struct.AVRational = type { i32, i32 }
%struct.FFStream = type { %struct.AVStream, ptr, i32, ptr, i32, ptr, i32, %struct.anon, i32, i32, %struct.FFFrac, ptr, ptr, i32, i32, i64, i64, i32, i32, i32, i64, i64, i64, i32, i64, i64, i64, i32, i32, [17 x i64], [17 x i8], [17 x i64], i64, i8, i8, %struct.AVRational, %struct.AVProbeData, ptr, i64, i32, i32, i32, ptr, i32, i32, i64, i64, ptr, %struct.AVRational }
%struct.anon = type { ptr, i32 }
%struct.FFFrac = type { i64, i64, i64 }
%struct.AVIndexEntry = type { i64, i64, i32, i32 }

; Function Attrs: alwaysinline nounwind uwtable
define internal i64 @avio_tell(ptr noundef %0) #5 {
  %2 = alloca ptr, align 8
  store ptr %0, ptr %2, align 8, !tbaa !31
  %3 = load ptr, ptr %2, align 8, !tbaa !31
  %4 = call i64 @avio_seek(ptr noundef %3, i64 noundef 0, i32 noundef 1)
  ret i64 %4
}

; Function Attrs: alwaysinline nounwind uwtable
define internal ptr @ffstream(ptr noundef %0) #5 {
  %2 = alloca ptr, align 8
  store ptr %0, ptr %2, align 8, !tbaa !38
  %3 = load ptr, ptr %2, align 8, !tbaa !38
  ret ptr %3
}

; Function Attrs: nounwind uwtable
define internal i32 @read_packet(ptr noundef %0, ptr noundef %1) #0 {
  %3 = alloca i32, align 4
  %4 = alloca ptr, align 8
  %5 = alloca ptr, align 8
  %6 = alloca ptr, align 8
  %7 = alloca ptr, align 8
  %8 = alloca ptr, align 8
  %9 = alloca ptr, align 8
  %10 = alloca i32, align 4
  %11 = alloca i32, align 4
  %12 = alloca i32, align 4
  %13 = alloca i64, align 8
  %14 = alloca i32, align 4
  store ptr %0, ptr %4, align 8, !tbaa !14
  store ptr %1, ptr %5, align 8, !tbaa !74
  call void @llvm.lifetime.start.p0(i64 8, ptr %6) #11
  %15 = load ptr, ptr %4, align 8, !tbaa !14
  %16 = getelementptr inbounds nuw %struct.AVFormatContext, ptr %15, i32 0, i32 4
  %17 = load ptr, ptr %16, align 8, !tbaa !16
  store ptr %17, ptr %6, align 8, !tbaa !31
  call void @llvm.lifetime.start.p0(i64 8, ptr %7) #11
  %18 = load ptr, ptr %4, align 8, !tbaa !14
  %19 = getelementptr inbounds nuw %struct.AVFormatContext, ptr %18, i32 0, i32 7
  %20 = load ptr, ptr %19, align 8, !tbaa !37
  %21 = getelementptr inbounds ptr, ptr %20, i64 0
  %22 = load ptr, ptr %21, align 8, !tbaa !38
  store ptr %22, ptr %7, align 8, !tbaa !38
  call void @llvm.lifetime.start.p0(i64 8, ptr %8) #11
  %23 = load ptr, ptr %7, align 8, !tbaa !38
  %24 = call ptr @ffstream(ptr noundef %23)
  store ptr %24, ptr %8, align 8, !tbaa !76
  call void @llvm.lifetime.start.p0(i64 8, ptr %9) #11
  %25 = load ptr, ptr %4, align 8, !tbaa !14
  %26 = getelementptr inbounds nuw %struct.AVFormatContext, ptr %25, i32 0, i32 3
  %27 = load ptr, ptr %26, align 8, !tbaa !32
  store ptr %27, ptr %9, align 8, !tbaa !33
  call void @llvm.lifetime.start.p0(i64 4, ptr %10) #11
  call void @llvm.lifetime.start.p0(i64 4, ptr %11) #11
  store i32 0, ptr %11, align 4, !tbaa !35
  call void @llvm.lifetime.start.p0(i64 4, ptr %12) #11
  store i32 0, ptr %12, align 4, !tbaa !35
  call void @llvm.lifetime.start.p0(i64 8, ptr %13) #11
  store i64 4096, ptr %13, align 8, !tbaa !36
  %28 = load ptr, ptr %6, align 8, !tbaa !31
  %29 = call i32 @avio_feof(ptr noundef %28)
  %30 = icmp ne i32 %29, 0
  br i1 %30, label %31, label %32

31:                                               ; preds = %2
  store i32 -541478725, ptr %3, align 4
  store i32 1, ptr %14, align 4
  br label %235

32:                                               ; preds = %2
  %33 = load ptr, ptr %9, align 8, !tbaa !33
  %34 = getelementptr inbounds nuw %struct.CafContext, ptr %33, i32 0, i32 6
  %35 = load i64, ptr %34, align 8, !tbaa !40
  %36 = icmp sgt i64 %35, 0
  br i1 %36, label %37, label %56

37:                                               ; preds = %32
  %38 = load ptr, ptr %9, align 8, !tbaa !33
  %39 = getelementptr inbounds nuw %struct.CafContext, ptr %38, i32 0, i32 5
  %40 = load i64, ptr %39, align 8, !tbaa !44
  %41 = load ptr, ptr %9, align 8, !tbaa !33
  %42 = getelementptr inbounds nuw %struct.CafContext, ptr %41, i32 0, i32 6
  %43 = load i64, ptr %42, align 8, !tbaa !40
  %44 = add nsw i64 %40, %43
  %45 = load ptr, ptr %6, align 8, !tbaa !31
  %46 = call i64 @avio_tell(ptr noundef %45)
  %47 = sub nsw i64 %44, %46
  store i64 %47, ptr %13, align 8, !tbaa !36
  %48 = load i64, ptr %13, align 8, !tbaa !36
  %49 = icmp ne i64 %48, 0
  br i1 %49, label %51, label %50

50:                                               ; preds = %37
  store i32 -541478725, ptr %3, align 4
  store i32 1, ptr %14, align 4
  br label %235

51:                                               ; preds = %37
  %52 = load i64, ptr %13, align 8, !tbaa !36
  %53 = icmp slt i64 %52, 0
  br i1 %53, label %54, label %55

54:                                               ; preds = %51
  store i32 -5, ptr %3, align 4
  store i32 1, ptr %14, align 4
  br label %235

55:                                               ; preds = %51
  br label %56

56:                                               ; preds = %55, %32
  %57 = load ptr, ptr %9, align 8, !tbaa !33
  %58 = getelementptr inbounds nuw %struct.CafContext, ptr %57, i32 0, i32 1
  %59 = load i32, ptr %58, align 4, !tbaa !48
  store i32 %59, ptr %12, align 4, !tbaa !35
  %60 = load ptr, ptr %9, align 8, !tbaa !33
  %61 = getelementptr inbounds nuw %struct.CafContext, ptr %60, i32 0, i32 0
  %62 = load i32, ptr %61, align 8, !tbaa !47
  store i32 %62, ptr %11, align 4, !tbaa !35
  %63 = load i32, ptr %11, align 4, !tbaa !35
  %64 = icmp sgt i32 %63, 0
  br i1 %64, label %65, label %90

65:                                               ; preds = %56
  %66 = load i32, ptr %12, align 4, !tbaa !35
  %67 = icmp eq i32 %66, 1
  br i1 %67, label %68, label %90

68:                                               ; preds = %65
  %69 = load i32, ptr %11, align 4, !tbaa !35
  %70 = sdiv i32 4096, %69
  %71 = load i32, ptr %11, align 4, !tbaa !35
  %72 = mul nsw i32 %70, %71
  store i32 %72, ptr %11, align 4, !tbaa !35
  %73 = load i32, ptr %11, align 4, !tbaa !35
  %74 = sext i32 %73 to i64
  %75 = load i64, ptr %13, align 8, !tbaa !36
  %76 = icmp sgt i64 %74, %75
  br i1 %76, label %77, label %79

77:                                               ; preds = %68
  %78 = load i64, ptr %13, align 8, !tbaa !36
  br label %82

79:                                               ; preds = %68
  %80 = load i32, ptr %11, align 4, !tbaa !35
  %81 = sext i32 %80 to i64
  br label %82

82:                                               ; preds = %79, %77
  %83 = phi i64 [ %78, %77 ], [ %81, %79 ]
  %84 = trunc i64 %83 to i32
  store i32 %84, ptr %11, align 4, !tbaa !35
  %85 = load i32, ptr %11, align 4, !tbaa !35
  %86 = load ptr, ptr %9, align 8, !tbaa !33
  %87 = getelementptr inbounds nuw %struct.CafContext, ptr %86, i32 0, i32 0
  %88 = load i32, ptr %87, align 8, !tbaa !47
  %89 = sdiv i32 %85, %88
  store i32 %89, ptr %12, align 4, !tbaa !35
  br label %191

90:                                               ; preds = %65, %56
  %91 = load ptr, ptr %8, align 8, !tbaa !76
  %92 = getelementptr inbounds nuw %struct.FFStream, ptr %91, i32 0, i32 13
  %93 = load i32, ptr %92, align 8, !tbaa !56
  %94 = icmp ne i32 %93, 0
  br i1 %94, label %95, label %190

95:                                               ; preds = %90
  %96 = load ptr, ptr %9, align 8, !tbaa !33
  %97 = getelementptr inbounds nuw %struct.CafContext, ptr %96, i32 0, i32 3
  %98 = load i64, ptr %97, align 8, !tbaa !78
  %99 = load ptr, ptr %8, align 8, !tbaa !76
  %100 = getelementptr inbounds nuw %struct.FFStream, ptr %99, i32 0, i32 13
  %101 = load i32, ptr %100, align 8, !tbaa !56
  %102 = sub nsw i32 %101, 1
  %103 = sext i32 %102 to i64
  %104 = icmp slt i64 %98, %103
  br i1 %104, label %105, label %148

105:                                              ; preds = %95
  %106 = load ptr, ptr %8, align 8, !tbaa !76
  %107 = getelementptr inbounds nuw %struct.FFStream, ptr %106, i32 0, i32 12
  %108 = load ptr, ptr %107, align 8, !tbaa !79
  %109 = load ptr, ptr %9, align 8, !tbaa !33
  %110 = getelementptr inbounds nuw %struct.CafContext, ptr %109, i32 0, i32 3
  %111 = load i64, ptr %110, align 8, !tbaa !78
  %112 = add nsw i64 %111, 1
  %113 = getelementptr inbounds %struct.AVIndexEntry, ptr %108, i64 %112
  %114 = getelementptr inbounds nuw %struct.AVIndexEntry, ptr %113, i32 0, i32 0
  %115 = load i64, ptr %114, align 8, !tbaa !80
  %116 = load ptr, ptr %8, align 8, !tbaa !76
  %117 = getelementptr inbounds nuw %struct.FFStream, ptr %116, i32 0, i32 12
  %118 = load ptr, ptr %117, align 8, !tbaa !79
  %119 = load ptr, ptr %9, align 8, !tbaa !33
  %120 = getelementptr inbounds nuw %struct.CafContext, ptr %119, i32 0, i32 3
  %121 = load i64, ptr %120, align 8, !tbaa !78
  %122 = getelementptr inbounds %struct.AVIndexEntry, ptr %118, i64 %121
  %123 = getelementptr inbounds nuw %struct.AVIndexEntry, ptr %122, i32 0, i32 0
  %124 = load i64, ptr %123, align 8, !tbaa !80
  %125 = sub nsw i64 %115, %124
  %126 = trunc i64 %125 to i32
  store i32 %126, ptr %11, align 4, !tbaa !35
  %127 = load ptr, ptr %8, align 8, !tbaa !76
  %128 = getelementptr inbounds nuw %struct.FFStream, ptr %127, i32 0, i32 12
  %129 = load ptr, ptr %128, align 8, !tbaa !79
  %130 = load ptr, ptr %9, align 8, !tbaa !33
  %131 = getelementptr inbounds nuw %struct.CafContext, ptr %130, i32 0, i32 3
  %132 = load i64, ptr %131, align 8, !tbaa !78
  %133 = add nsw i64 %132, 1
  %134 = getelementptr inbounds %struct.AVIndexEntry, ptr %129, i64 %133
  %135 = getelementptr inbounds nuw %struct.AVIndexEntry, ptr %134, i32 0, i32 1
  %136 = load i64, ptr %135, align 8, !tbaa !82
  %137 = load ptr, ptr %8, align 8, !tbaa !76
  %138 = getelementptr inbounds nuw %struct.FFStream, ptr %137, i32 0, i32 12
  %139 = load ptr, ptr %138, align 8, !tbaa !79
  %140 = load ptr, ptr %9, align 8, !tbaa !33
  %141 = getelementptr inbounds nuw %struct.CafContext, ptr %140, i32 0, i32 3
  %142 = load i64, ptr %141, align 8, !tbaa !78
  %143 = getelementptr inbounds %struct.AVIndexEntry, ptr %139, i64 %142
  %144 = getelementptr inbounds nuw %struct.AVIndexEntry, ptr %143, i32 0, i32 1
  %145 = load i64, ptr %144, align 8, !tbaa !82
  %146 = sub nsw i64 %136, %145
  %147 = trunc i64 %146 to i32
  store i32 %147, ptr %12, align 4, !tbaa !35
  br label %189

148:                                              ; preds = %95
  %149 = load ptr, ptr %9, align 8, !tbaa !33
  %150 = getelementptr inbounds nuw %struct.CafContext, ptr %149, i32 0, i32 3
  %151 = load i64, ptr %150, align 8, !tbaa !78
  %152 = load ptr, ptr %8, align 8, !tbaa !76
  %153 = getelementptr inbounds nuw %struct.FFStream, ptr %152, i32 0, i32 13
  %154 = load i32, ptr %153, align 8, !tbaa !56
  %155 = sub nsw i32 %154, 1
  %156 = sext i32 %155 to i64
  %157 = icmp eq i64 %151, %156
  br i1 %157, label %158, label %187

158:                                              ; preds = %148
  %159 = load ptr, ptr %9, align 8, !tbaa !33
  %160 = getelementptr inbounds nuw %struct.CafContext, ptr %159, i32 0, i32 2
  %161 = load i64, ptr %160, align 8, !tbaa !83
  %162 = load ptr, ptr %8, align 8, !tbaa !76
  %163 = getelementptr inbounds nuw %struct.FFStream, ptr %162, i32 0, i32 12
  %164 = load ptr, ptr %163, align 8, !tbaa !79
  %165 = load ptr, ptr %9, align 8, !tbaa !33
  %166 = getelementptr inbounds nuw %struct.CafContext, ptr %165, i32 0, i32 3
  %167 = load i64, ptr %166, align 8, !tbaa !78
  %168 = getelementptr inbounds %struct.AVIndexEntry, ptr %164, i64 %167
  %169 = getelementptr inbounds nuw %struct.AVIndexEntry, ptr %168, i32 0, i32 0
  %170 = load i64, ptr %169, align 8, !tbaa !80
  %171 = sub nsw i64 %161, %170
  %172 = trunc i64 %171 to i32
  store i32 %172, ptr %11, align 4, !tbaa !35
  %173 = load ptr, ptr %7, align 8, !tbaa !38
  %174 = getelementptr inbounds nuw %struct.AVStream, ptr %173, i32 0, i32 7
  %175 = load i64, ptr %174, align 8, !tbaa !67
  %176 = load ptr, ptr %8, align 8, !tbaa !76
  %177 = getelementptr inbounds nuw %struct.FFStream, ptr %176, i32 0, i32 12
  %178 = load ptr, ptr %177, align 8, !tbaa !79
  %179 = load ptr, ptr %9, align 8, !tbaa !33
  %180 = getelementptr inbounds nuw %struct.CafContext, ptr %179, i32 0, i32 3
  %181 = load i64, ptr %180, align 8, !tbaa !78
  %182 = getelementptr inbounds %struct.AVIndexEntry, ptr %178, i64 %181
  %183 = getelementptr inbounds nuw %struct.AVIndexEntry, ptr %182, i32 0, i32 1
  %184 = load i64, ptr %183, align 8, !tbaa !82
  %185 = sub nsw i64 %175, %184
  %186 = trunc i64 %185 to i32
  store i32 %186, ptr %12, align 4, !tbaa !35
  br label %188

187:                                              ; preds = %148
  store i32 -5, ptr %3, align 4
  store i32 1, ptr %14, align 4
  br label %235

188:                                              ; preds = %158
  br label %189

189:                                              ; preds = %188, %105
  br label %190

190:                                              ; preds = %189, %90
  br label %191

191:                                              ; preds = %190, %82
  %192 = load i32, ptr %11, align 4, !tbaa !35
  %193 = icmp eq i32 %192, 0
  br i1 %193, label %202, label %194

194:                                              ; preds = %191
  %195 = load i32, ptr %12, align 4, !tbaa !35
  %196 = icmp eq i32 %195, 0
  br i1 %196, label %202, label %197

197:                                              ; preds = %194
  %198 = load i32, ptr %11, align 4, !tbaa !35
  %199 = sext i32 %198 to i64
  %200 = load i64, ptr %13, align 8, !tbaa !36
  %201 = icmp sgt i64 %199, %200
  br i1 %201, label %202, label %203

202:                                              ; preds = %197, %194, %191
  store i32 -5, ptr %3, align 4
  store i32 1, ptr %14, align 4
  br label %235

203:                                              ; preds = %197
  %204 = load ptr, ptr %6, align 8, !tbaa !31
  %205 = load ptr, ptr %5, align 8, !tbaa !74
  %206 = load i32, ptr %11, align 4, !tbaa !35
  %207 = call i32 @av_get_packet(ptr noundef %204, ptr noundef %205, i32 noundef %206)
  store i32 %207, ptr %10, align 4, !tbaa !35
  %208 = load i32, ptr %10, align 4, !tbaa !35
  %209 = icmp slt i32 %208, 0
  br i1 %209, label %210, label %212

210:                                              ; preds = %203
  %211 = load i32, ptr %10, align 4, !tbaa !35
  store i32 %211, ptr %3, align 4
  store i32 1, ptr %14, align 4
  br label %235

212:                                              ; preds = %203
  %213 = load i32, ptr %10, align 4, !tbaa !35
  %214 = load ptr, ptr %5, align 8, !tbaa !74
  %215 = getelementptr inbounds nuw %struct.AVPacket, ptr %214, i32 0, i32 4
  store i32 %213, ptr %215, align 8, !tbaa !84
  %216 = load ptr, ptr %5, align 8, !tbaa !74
  %217 = getelementptr inbounds nuw %struct.AVPacket, ptr %216, i32 0, i32 5
  store i32 0, ptr %217, align 4, !tbaa !85
  %218 = load ptr, ptr %9, align 8, !tbaa !33
  %219 = getelementptr inbounds nuw %struct.CafContext, ptr %218, i32 0, i32 4
  %220 = load i64, ptr %219, align 8, !tbaa !86
  %221 = load ptr, ptr %5, align 8, !tbaa !74
  %222 = getelementptr inbounds nuw %struct.AVPacket, ptr %221, i32 0, i32 1
  store i64 %220, ptr %222, align 8, !tbaa !87
  %223 = load ptr, ptr %5, align 8, !tbaa !74
  %224 = getelementptr inbounds nuw %struct.AVPacket, ptr %223, i32 0, i32 2
  store i64 %220, ptr %224, align 8, !tbaa !88
  %225 = load ptr, ptr %9, align 8, !tbaa !33
  %226 = getelementptr inbounds nuw %struct.CafContext, ptr %225, i32 0, i32 3
  %227 = load i64, ptr %226, align 8, !tbaa !78
  %228 = add nsw i64 %227, 1
  store i64 %228, ptr %226, align 8, !tbaa !78
  %229 = load i32, ptr %12, align 4, !tbaa !35
  %230 = sext i32 %229 to i64
  %231 = load ptr, ptr %9, align 8, !tbaa !33
  %232 = getelementptr inbounds nuw %struct.CafContext, ptr %231, i32 0, i32 4
  %233 = load i64, ptr %232, align 8, !tbaa !86
  %234 = add nsw i64 %233, %230
  store i64 %234, ptr %232, align 8, !tbaa !86
  store i32 0, ptr %3, align 4
  store i32 1, ptr %14, align 4
  br label %235

235:                                              ; preds = %212, %210, %202, %187, %54, %50, %31
  call void @llvm.lifetime.end.p0(i64 8, ptr %13) #11
  call void @llvm.lifetime.end.p0(i64 4, ptr %12) #11
  call void @llvm.lifetime.end.p0(i64 4, ptr %11) #11
  call void @llvm.lifetime.end.p0(i64 4, ptr %10) #11
  call void @llvm.lifetime.end.p0(i64 8, ptr %9) #11
  call void @llvm.lifetime.end.p0(i64 8, ptr %8) #11
  call void @llvm.lifetime.end.p0(i64 8, ptr %7) #11
  call void @llvm.lifetime.end.p0(i64 8, ptr %6) #11
  %236 = load i32, ptr %3, align 4
  ret i32 %236
}