; Function Attrs: nounwind uwtable
define internal range(i32 -2147483648, 1) i32 @read_packet(ptr noundef readonly captures(none) %0, ptr noundef %1) #1 {
  %3 = getelementptr inbounds nuw i8, ptr %0, i64 32
  %4 = load ptr, ptr %3, align 8, !tbaa !12
  %5 = getelementptr inbounds nuw i8, ptr %0, i64 48
  %6 = load ptr, ptr %5, align 8, !tbaa !48
  %7 = load ptr, ptr %6, align 8, !tbaa !49
  %8 = getelementptr inbounds nuw i8, ptr %0, i64 24
  %9 = load ptr, ptr %8, align 8, !tbaa !27
  %10 = tail call i32 @avio_feof(ptr noundef %4) #8
  %.not = icmp eq i32 %10, 0
  br i1 %.not, label %11, label %97

11:                                               ; preds = %2
  %12 = getelementptr inbounds nuw i8, ptr %9, i64 40
  %13 = load i64, ptr %12, align 8, !tbaa !51
  %14 = icmp sgt i64 %13, 0
  br i1 %14, label %15, label %23

15:                                               ; preds = %11
  %16 = getelementptr inbounds nuw i8, ptr %9, i64 32
  %17 = load i64, ptr %16, align 8, !tbaa !54
  %18 = add nsw i64 %17, %13
  %19 = tail call i64 @avio_seek(ptr noundef %4, i64 noundef 0, i32 noundef 1) #8
  %20 = sub i64 %18, %19
  %.not74 = icmp eq i64 %20, 0
  br i1 %.not74, label %97, label %21

21:                                               ; preds = %15
  %22 = icmp slt i64 %20, 0
  br i1 %22, label %97, label %23

23:                                               ; preds = %21, %11
  %.0 = phi i64 [ %20, %21 ], [ 4096, %11 ]
  %24 = getelementptr inbounds nuw i8, ptr %9, i64 4
  %25 = load i32, ptr %24, align 4, !tbaa !43
  %26 = load i32, ptr %9, align 8, !tbaa !40
  %27 = icmp sgt i32 %26, 0
  %28 = icmp eq i32 %25, 1
  %or.cond = select i1 %27, i1 %28, i1 false
  br i1 %or.cond, label %29, label %36

29:                                               ; preds = %23
  %30 = urem i32 4096, %26
  %31 = sub nuw nsw i32 4096, %30
  %32 = zext nneg i32 %31 to i64
  %33 = tail call i64 @llvm.umin.i64(i64 %.0, i64 %32)
  %34 = trunc nuw nsw i64 %33 to i32
  %35 = udiv i32 %34, %26
  br label %77

36:                                               ; preds = %23
  %37 = getelementptr inbounds nuw i8, ptr %7, i64 328
  %38 = load i32, ptr %37, align 8, !tbaa !63
  %.not75 = icmp eq i32 %38, 0
  br i1 %.not75, label %77, label %39

39:                                               ; preds = %36
  %40 = getelementptr inbounds nuw i8, ptr %9, i64 16
  %41 = load i64, ptr %40, align 8, !tbaa !76
  %42 = add nsw i32 %38, -1
  %43 = sext i32 %42 to i64
  %44 = icmp slt i64 %41, %43
  br i1 %44, label %45, label %60

45:                                               ; preds = %39
  %46 = getelementptr inbounds nuw i8, ptr %7, i64 320
  %47 = load ptr, ptr %46, align 8, !tbaa !77
  %48 = getelementptr %struct.AVIndexEntry, ptr %47, i64 %41
  %49 = getelementptr i8, ptr %48, i64 24
  %50 = load i64, ptr %49, align 8, !tbaa !78
  %51 = load i64, ptr %48, align 8, !tbaa !78
  %52 = sub nsw i64 %50, %51
  %53 = trunc i64 %52 to i32
  %54 = getelementptr i8, ptr %48, i64 32
  %55 = load i64, ptr %54, align 8, !tbaa !80
  %56 = getelementptr inbounds nuw i8, ptr %48, i64 8
  %57 = load i64, ptr %56, align 8, !tbaa !80
  %58 = sub nsw i64 %55, %57
  %59 = trunc i64 %58 to i32
  br label %77

60:                                               ; preds = %39
  %61 = icmp eq i64 %41, %43
  br i1 %61, label %62, label %97

62:                                               ; preds = %60
  %63 = getelementptr inbounds nuw i8, ptr %9, i64 8
  %64 = load i64, ptr %63, align 8, !tbaa !60
  %65 = getelementptr inbounds nuw i8, ptr %7, i64 320
  %66 = load ptr, ptr %65, align 8, !tbaa !77
  %67 = getelementptr inbounds %struct.AVIndexEntry, ptr %66, i64 %41
  %68 = load i64, ptr %67, align 8, !tbaa !78
  %69 = sub nsw i64 %64, %68
  %70 = trunc i64 %69 to i32
  %71 = getelementptr inbounds nuw i8, ptr %7, i64 48
  %72 = load i64, ptr %71, align 8, !tbaa !57
  %73 = getelementptr inbounds nuw i8, ptr %67, i64 8
  %74 = load i64, ptr %73, align 8, !tbaa !80
  %75 = sub nsw i64 %72, %74
  %76 = trunc i64 %75 to i32
  br label %77

77:                                               ; preds = %36, %62, %45, %29
  %.064 = phi i32 [ %34, %29 ], [ %53, %45 ], [ %70, %62 ], [ %26, %36 ]
  %.063 = phi i32 [ %35, %29 ], [ %59, %45 ], [ %76, %62 ], [ %25, %36 ]
  %78 = icmp eq i32 %.064, 0
  %79 = icmp eq i32 %.063, 0
  %or.cond3 = select i1 %78, i1 true, i1 %79
  %80 = sext i32 %.064 to i64
  %81 = icmp slt i64 %.0, %80
  %or.cond77 = or i1 %81, %or.cond3
  br i1 %or.cond77, label %97, label %82

82:                                               ; preds = %77
  %83 = tail call i32 @av_get_packet(ptr noundef %4, ptr noundef %1, i32 noundef %.064) #8
  %84 = icmp slt i32 %83, 0
  br i1 %84, label %97, label %85

85:                                               ; preds = %82
  %86 = getelementptr inbounds nuw i8, ptr %1, i64 32
  store i32 %83, ptr %86, align 8, !tbaa !81
  %87 = getelementptr inbounds nuw i8, ptr %1, i64 36
  store i32 0, ptr %87, align 4, !tbaa !82
  %88 = getelementptr inbounds nuw i8, ptr %9, i64 24
  %89 = load i64, ptr %88, align 8, !tbaa !83
  %90 = getelementptr inbounds nuw i8, ptr %1, i64 8
  store i64 %89, ptr %90, align 8, !tbaa !84
  %91 = getelementptr inbounds nuw i8, ptr %1, i64 16
  store i64 %89, ptr %91, align 8, !tbaa !85
  %92 = getelementptr inbounds nuw i8, ptr %9, i64 16
  %93 = load i64, ptr %92, align 8, !tbaa !76
  %94 = add nsw i64 %93, 1
  store i64 %94, ptr %92, align 8, !tbaa !76
  %95 = sext i32 %.063 to i64
  %96 = add nsw i64 %89, %95
  store i64 %96, ptr %88, align 8, !tbaa !83
  br label %97

97:                                               ; preds = %82, %77, %60, %21, %15, %2, %85
  %.065 = phi i32 [ 0, %85 ], [ -541478725, %2 ], [ -541478725, %15 ], [ -5, %21 ], [ -5, %60 ], [ -5, %77 ], [ %83, %82 ]
  ret i32 %.065
}